target datalayout = "e-m:e-p270:32:32-p271:32:32-p272:64:64-i64:64-i128:128-f80:128-n8:16:32:64-S128"
target triple = "x86_64-pc-linux-gnu"

; Function Attrs: mustprogress uwtable
define dso_local void @_ZN12DFSOutputMgr6OutputEv(ptr noundef nonnull align 8 dereferenceable(40) %0) unnamed_addr #4 align 2 {
  %2 = alloca ptr, align 8
  %3 = alloca ptr, align 8
  store ptr %0, ptr %2, align 8, !tbaa !4
  %4 = load ptr, ptr %2, align 8
  call void @llvm.lifetime.start.p0(i64 8, ptr %3) #3
  %5 = load ptr, ptr %4, align 8, !tbaa !9
  %6 = getelementptr inbounds ptr, ptr %5, i64 8
  %7 = load ptr, ptr %6, align 8
  %8 = call noundef nonnull align 8 dereferenceable(8) ptr %7(ptr noundef nonnull align 8 dereferenceable(40) %4)
  store ptr %8, ptr %3, align 8, !tbaa !21
  %9 = load ptr, ptr %3, align 8, !tbaa !21
  call void @_Z21OutputGlobalVariablesRSo(ptr noundef nonnull align 8 dereferenceable(8) %9)
  %10 = call noundef zeroext i1 @_ZN9CGOptions14compact_outputEv()
  br i1 %10, label %13, label %11

11:                                               ; preds = %1
  %12 = load ptr, ptr %3, align 8, !tbaa !21
  call void @_Z25OutputForwardDeclarationsRSo(ptr noundef nonnull align 8 dereferenceable(8) %12)
  br label %13

13:                                               ; preds = %11, %1
  %14 = load ptr, ptr %3, align 8, !tbaa !21
  call void @_Z15OutputFunctionsRSo(ptr noundef nonnull align 8 dereferenceable(8) %14)
  %15 = call noundef zeroext i1 @_ZN9CGOptions17step_hash_by_stmtEv()
  br i1 %15, label %16, label %19

16:                                               ; preds = %13
  %17 = load ptr, ptr %3, align 8, !tbaa !21
  call void @_ZN9OutputMgr17OutputHashFuncDefERSo(ptr noundef nonnull align 8 dereferenceable(8) %17)
  %18 = load ptr, ptr %3, align 8, !tbaa !21
  call void @_ZN9OutputMgr21OutputStepHashFuncDefERSo(ptr noundef nonnull align 8 dereferenceable(8) %18)
  br label %19

19:                                               ; preds = %16, %13
  %20 = call noundef zeroext i1 @_ZN9CGOptions14compact_outputEv()
  br i1 %20, label %23, label %21

21:                                               ; preds = %19
  %22 = load ptr, ptr %3, align 8, !tbaa !21
  call void @_ZN9OutputMgr10OutputMainERSo(ptr noundef nonnull align 8 dereferenceable(8) %4, ptr noundef nonnull align 8 dereferenceable(8) %22)
  br label %23

23:                                               ; preds = %21, %19
  call void @llvm.lifetime.end.p0(i64 8, ptr %3) #3
  ret void
}