; Function Attrs: mustprogress uwtable
define dso_local void @_ZN12DFSOutputMgr6OutputEv(ptr noundef nonnull align 8 dereferenceable(40) %0) unnamed_addr #3 align 2 {
  %2 = load ptr, ptr %0, align 8, !tbaa !4
  %3 = getelementptr inbounds nuw i8, ptr %2, i64 64
  %4 = load ptr, ptr %3, align 8
  %5 = tail call noundef nonnull align 8 dereferenceable(8) ptr %4(ptr noundef nonnull align 8 dereferenceable(40) %0)
  tail call void @_Z21OutputGlobalVariablesRSo(ptr noundef nonnull align 8 dereferenceable(8) %5)
  %6 = tail call noundef zeroext i1 @_ZN9CGOptions14compact_outputEv()
  br i1 %6, label %8, label %7

7:                                                ; preds = %1
  tail call void @_Z25OutputForwardDeclarationsRSo(ptr noundef nonnull align 8 dereferenceable(8) %5)
  br label %8

8:                                                ; preds = %7, %1
  tail call void @_Z15OutputFunctionsRSo(ptr noundef nonnull align 8 dereferenceable(8) %5)
  %9 = tail call noundef zeroext i1 @_ZN9CGOptions17step_hash_by_stmtEv()
  br i1 %9, label %10, label %11

10:                                               ; preds = %8
  tail call void @_ZN9OutputMgr17OutputHashFuncDefERSo(ptr noundef nonnull align 8 dereferenceable(8) %5)
  tail call void @_ZN9OutputMgr21OutputStepHashFuncDefERSo(ptr noundef nonnull align 8 dereferenceable(8) %5)
  br label %11

11:                                               ; preds = %10, %8
  %12 = tail call noundef zeroext i1 @_ZN9CGOptions14compact_outputEv()
  br i1 %12, label %14, label %13

13:                                               ; preds = %11
  tail call void @_ZN9OutputMgr10OutputMainERSo(ptr noundef nonnull align 8 dereferenceable(8) %0, ptr noundef nonnull align 8 dereferenceable(8) %5)
  br label %14

14:                                               ; preds = %13, %11
  ret void
}